(lp0
(lp1
(lp2
S'I11'
p3
aS'I12'
p4
aF1.0
aS'r'
p5
aa(lp6
g3
aS'I14'
p7
aF1.0
aS's'
p8
aa(lp9
g4
ag3
aF9.0
ag8
aa(lp10
S'I13'
p11
ag7
aF1.0
ag5
aa(lp12
g11
aS'I18'
p13
aF1.0
aS'l'
p14
aa(lp15
g7
aS'I27'
p16
aF4.0
ag8
aa(lp17
S'I15'
p18
ag4
aF1.0
ag14
aa(lp19
g18
ag13
aF1.0
ag8
aa(lp20
g13
ag11
aF9.0
ag8
aa(lp21
S'I21'
p22
aS'I22'
p23
aF1.0
ag5
aa(lp24
g22
aS'I26'
p25
aF1.0
ag14
aa(lp26
g23
aS'I37'
p27
aF2.0
ag8
aa(lp28
S'I23'
p29
ag25
aF1.0
ag8
aa(lp30
g29
aS'I28'
p31
aF1.0
ag5
aa(lp32
g25
ag18
aF4.0
ag8
aa(lp33
g16
ag23
aF1.0
ag8
aa(lp34
g16
ag31
aF1.0
ag5
aa(lp35
g31
aS'I47'
p36
aF4.0
ag8
aa(lp37
S'I31'
p38
aS'I32'
p39
aF1.0
ag5
aa(lp40
g38
aS'I36'
p41
aF1.0
ag14
aa(lp42
g39
aS'I55'
p43
aF6.0
ag8
aa(lp44
S'I33'
p45
ag41
aF1.0
ag8
aa(lp46
g45
aS'I38'
p47
aF1.0
ag5
aa(lp48
g41
ag29
aF2.0
ag8
aa(lp49
g27
ag39
aF1.0
ag8
aa(lp50
g27
ag47
aF1.0
ag5
aa(lp51
g47
aS'I45'
p52
aF1.0
ag5
aa(lp53
S'I41'
p54
aS'I42'
p55
aF1.0
ag5
aa(lp56
g54
aS'I44'
p57
aF1.0
ag8
aa(lp58
g54
aS'I46'
p59
aF1.0
ag14
aa(lp60
g55
aS'I57'
p61
aF4.0
ag8
aa(lp62
S'I43'
p63
ag57
aF1.0
ag5
aa(lp64
g63
ag59
aF1.0
ag8
aa(lp65
g63
aS'I48'
p66
aF1.0
ag14
aa(lp67
g57
ag38
aF1.0
ag8
aa(lp68
g52
ag59
aF1.0
ag5
aa(lp69
g52
ag66
aF1.0
ag8
aa(lp70
g52
ag55
aF1.0
ag14
aa(lp71
g59
ag22
aF4.0
ag8
aa(lp72
g36
ag66
aF1.0
ag5
aa(lp73
g36
ag55
aF1.0
ag8
aa(lp74
g36
ag57
aF1.0
ag14
aa(lp75
g66
aS'I51'
p76
aF8.0
ag8
aa(lp77
g76
aS'I54'
p78
aF1.0
ag8
aa(lp79
g76
aS'I56'
p80
aF1.0
ag14
aa(lp81
g78
ag45
aF6.0
ag8
aa(lp82
g43
ag80
aF1.0
ag5
aa(lp83
g43
aS'I58'
p84
aF1.0
ag8
aa(lp85
g80
ag63
aF4.0
ag8
aa(lp86
g61
ag84
aF1.0
ag5
aa(lp87
g61
ag78
aF1.0
ag14
aa(lp88
g84
ag54
aF8.0
ag8
aaa(dp89
g31
(I1
F2.25
tp90
sg27
(F0.75
I5
tp91
sg22
(I1
F2.75
tp92
sg23
(F0.75
I3
tp93
sg29
(F0.25
I3
tp94
sg45
(F0.25
I6
tp95
sg25
(F0.25
I2
tp96
sg16
(F0.75
I2
tp97
sg84
(I4
F9.25
tp98
sg39
(F0.75
I6
tp99
sg76
(I4
F9.75
tp100
sg43
(I3
F9.25
tp101
sg78
(I3
F9.75
tp102
sg61
(F3.75
I9
tp103
sg80
(F3.25
I9
tp104
sg47
(I1
F5.25
tp105
sg13
(I4
F0.25
tp106
sg18
(I3
F0.25
tp107
sg7
(I3
F0.75
tp108
sg38
(I1
F5.75
tp109
sg3
(I4
F0.75
tp110
sg41
(F0.25
I5
tp111
sg11
(F3.25
I1
tp112
sg4
(F3.75
I1
tp113
sg66
(I3
F5.25
tp114
sg59
(F2.25
I5
tp115
sg36
(F2.75
I5
tp116
sg57
(I2
F5.75
tp117
sg52
(I2
F5.25
tp118
sg55
(F2.75
I6
tp119
sg63
(F2.25
I6
tp120
sg54
(I3
F5.75
tp121
sa.