(lp0
(lp1
(lp2
S'I11'
p3
aS'I12'
p4
aF1.0
aS'r'
p5
aa(lp6
g3
aS'I14'
p7
aF1.0
aS's'
p8
aa(lp9
g4
ag3
aF9.0
aS'f'
p10
aa(lp11
S'I13'
p12
ag7
aF1.0
ag5
aa(lp13
g12
aS'I18'
p14
aF1.0
aS'l'
p15
aa(lp16
g7
aS'I27'
p17
aF4.0
ag10
aa(lp18
S'I15'
p19
ag4
aF1.0
ag15
aa(lp20
g19
ag14
aF1.0
ag8
aa(lp21
g14
ag12
aF9.0
ag10
aa(lp22
S'I21'
p23
aS'I22'
p24
aF1.0
ag5
aa(lp25
g23
aS'I26'
p26
aF1.0
ag15
aa(lp27
g24
aS'I37'
p28
aF2.0
ag10
aa(lp29
S'I23'
p30
ag26
aF1.0
ag8
aa(lp31
g30
aS'I28'
p32
aF1.0
ag5
aa(lp33
g26
ag19
aF4.0
ag10
aa(lp34
g17
ag24
aF1.0
ag8
aa(lp35
g17
ag32
aF1.0
ag5
aa(lp36
g32
aS'I47'
p37
aF4.0
ag10
aa(lp38
S'I31'
p39
aS'I32'
p40
aF1.0
ag5
aa(lp41
g39
aS'I36'
p42
aF1.0
ag15
aa(lp43
g40
aS'I55'
p44
aF6.0
ag10
aa(lp45
S'I33'
p46
ag42
aF1.0
ag8
aa(lp47
g46
aS'I38'
p48
aF1.0
ag5
aa(lp49
g42
ag30
aF2.0
ag10
aa(lp50
g28
ag40
aF1.0
ag8
aa(lp51
g28
ag48
aF1.0
ag5
aa(lp52
g48
aS'I45'
p53
aF1.0
ag10
aa(lp54
S'I41'
p55
aS'I42'
p56
aF1.0
ag5
aa(lp57
g55
aS'I44'
p58
aF1.0
ag8
aa(lp59
g55
aS'I46'
p60
aF1.0
ag15
aa(lp61
g56
aS'I57'
p62
aF4.0
ag10
aa(lp63
S'I43'
p64
ag58
aF1.0
ag5
aa(lp65
g64
ag60
aF1.0
ag8
aa(lp66
g64
aS'I48'
p67
aF1.0
ag15
aa(lp68
g58
ag39
aF1.0
ag10
aa(lp69
g53
ag60
aF1.0
ag5
aa(lp70
g53
ag67
aF1.0
ag8
aa(lp71
g53
ag56
aF1.0
ag15
aa(lp72
g60
ag23
aF4.0
ag10
aa(lp73
g37
ag67
aF1.0
ag5
aa(lp74
g37
ag56
aF1.0
ag8
aa(lp75
g37
ag58
aF1.0
ag15
aa(lp76
g67
aS'I51'
p77
aF8.0
ag10
aa(lp78
g77
aS'I54'
p79
aF1.0
ag8
aa(lp80
g77
aS'I56'
p81
aF1.0
ag15
aa(lp82
g79
ag46
aF6.0
ag10
aa(lp83
g44
ag81
aF1.0
ag5
aa(lp84
g44
aS'I58'
p85
aF1.0
ag8
aa(lp86
g81
ag64
aF4.0
ag10
aa(lp87
g62
ag85
aF1.0
ag5
aa(lp88
g62
ag79
aF1.0
ag15
aa(lp89
g85
ag55
aF8.0
ag10
aaa(dp90
g32
(I1
F2.25
tp91
sg28
(F0.75
I5
tp92
sg23
(I1
F2.75
tp93
sg24
(F0.75
I3
tp94
sg30
(F0.25
I3
tp95
sg46
(F0.25
I6
tp96
sg26
(F0.25
I2
tp97
sg17
(F0.75
I2
tp98
sg85
(I4
F9.25
tp99
sg40
(F0.75
I6
tp100
sg77
(I4
F9.75
tp101
sg44
(I3
F9.25
tp102
sg79
(I3
F9.75
tp103
sg62
(F3.75
I9
tp104
sg81
(F3.25
I9
tp105
sg48
(I1
F5.25
tp106
sg14
(I4
F0.25
tp107
sg19
(I3
F0.25
tp108
sg7
(I3
F0.75
tp109
sg39
(I1
F5.75
tp110
sg3
(I4
F0.75
tp111
sg42
(F0.25
I5
tp112
sg12
(F3.25
I1
tp113
sg4
(F3.75
I1
tp114
sg67
(I3
F5.25
tp115
sg60
(F2.25
I5
tp116
sg37
(F2.75
I5
tp117
sg58
(I2
F5.75
tp118
sg53
(I2
F5.25
tp119
sg56
(F2.75
I6
tp120
sg64
(F2.25
I6
tp121
sg55
(I3
F5.75
tp122
sa.