(lp0
(lp1
(lp2
S'11'
p3
aS'12'
p4
aF0.5
aS'r'
p5
aa(lp6
g3
aS'14'
p7
aF1.0
aS's'
p8
aa(lp9
g4
aS'121'
p10
aF2.25
aS'f'
p11
aa(lp12
g10
aS'122'
p13
aF1.5
ag11
aa(lp14
g13
aS'123'
p15
aF2.5
ag11
aa(lp16
g15
ag3
aF1.25
ag11
aa(lp17
S'13'
p18
ag7
aF0.5
ag5
aa(lp19
g18
aS'18'
p20
aF1.5
aS'l'
p21
aa(lp22
g7
aS'141'
p23
aF2.25
ag11
aa(lp24
g23
aS'27'
p25
aF1.25
ag11
aa(lp26
S'15'
p27
ag4
aF1.5
ag21
aa(lp28
g27
ag20
aF1.0
ag8
aa(lp29
g20
aS'181'
p30
aF1.75
ag11
aa(lp31
g30
aS'182'
p32
aF3.5
ag11
aa(lp33
g32
aS'183'
p34
aF2.5
ag11
aa(lp35
g34
ag18
aF2.75
ag11
aa(lp36
S'21'
p37
aS'22'
p38
aF0.5
ag5
aa(lp39
g37
aS'26'
p40
aF1.5
ag21
aa(lp41
g38
aS'37'
p42
aF2.0
ag11
aa(lp43
S'23'
p44
ag40
aF1.0
ag8
aa(lp45
g44
aS'28'
p46
aF1.5
ag5
aa(lp47
g40
aS'261'
p48
aF1.75
ag11
aa(lp49
g48
ag27
aF2.75
ag11
aa(lp50
g25
ag38
aF1.0
ag8
aa(lp51
g25
ag46
aF0.5
ag5
aa(lp52
g46
aS'281'
p53
aF1.75
ag11
aa(lp54
g53
aS'47'
p55
aF2.75
ag11
aa(lp56
S'31'
p57
aS'32'
p58
aF0.5
ag5
aa(lp59
g57
aS'36'
p60
aF1.5
ag21
aa(lp61
g58
aS'321'
p62
aF3.25
ag11
aa(lp63
g62
aS'55'
p64
aF2.25
ag11
aa(lp65
S'33'
p66
ag60
aF1.0
ag8
aa(lp67
g66
aS'38'
p68
aF1.5
ag5
aa(lp69
g60
ag44
aF2.0
ag11
aa(lp70
g42
ag58
aF1.0
ag8
aa(lp71
g42
ag68
aF0.5
ag5
aa(lp72
g68
aS'45'
p73
aF1.0
ag11
aa(lp74
S'41'
p75
aS'42'
p76
aF0.5
ag5
aa(lp77
g75
aS'44'
p78
aF1.0
ag8
aa(lp79
g75
aS'46'
p80
aF1.5
ag21
aa(lp81
g76
aS'421'
p82
aF1.25
ag11
aa(lp83
g82
aS'422'
p84
aF1.0
ag11
aa(lp85
g84
aS'57'
p86
aF1.75
ag11
aa(lp87
S'43'
p88
ag78
aF0.5
ag5
aa(lp89
g88
ag80
aF1.0
ag8
aa(lp90
g88
aS'48'
p91
aF1.5
ag21
aa(lp92
g78
ag57
aF1.0
ag11
aa(lp93
g73
ag80
aF0.5
ag5
aa(lp94
g73
ag91
aF1.0
ag8
aa(lp95
g73
ag76
aF1.5
ag21
aa(lp96
g80
aS'461'
p97
aF2.25
ag11
aa(lp98
g97
ag37
aF1.25
ag11
aa(lp99
g55
ag91
aF0.5
ag5
aa(lp100
g55
ag76
aF1.0
ag8
aa(lp101
g55
ag78
aF1.5
ag21
aa(lp102
g91
aS'481'
p103
aF1.75
ag11
aa(lp104
g103
aS'482'
p105
aF3.0
ag11
aa(lp106
g105
aS'483'
p107
aF1.0
ag11
aa(lp108
g107
aS'484'
p109
aF1.5
ag11
aa(lp110
g109
aS'51'
p111
aF1.75
ag11
aa(lp112
g111
aS'54'
p113
aF1.0
ag8
aa(lp114
g111
aS'56'
p115
aF1.5
ag21
aa(lp116
g113
aS'541'
p117
aF2.75
ag11
aa(lp118
g117
ag66
aF3.75
ag11
aa(lp119
g64
ag115
aF0.5
ag5
aa(lp120
g64
aS'58'
p121
aF1.0
ag8
aa(lp122
g115
aS'561'
p123
aF1.25
ag11
aa(lp124
g123
aS'562'
p125
aF1.0
ag11
aa(lp126
g125
ag88
aF1.75
ag11
aa(lp127
g86
ag121
aF0.5
ag5
aa(lp128
g86
ag113
aF1.5
ag21
aa(lp129
g121
aS'581'
p130
aF1.25
ag11
aa(lp131
g130
aS'582'
p132
aF0.5
ag11
aa(lp133
g132
aS'583'
p134
aF1.0
ag11
aa(lp135
g134
aS'584'
p136
aF3.0
ag11
aa(lp137
g136
ag75
aF1.25
ag11
aaa(dp138
g117
(F0.25
F9.75
tp139
sg40
(F0.25
I2
tp140
sg25
(F0.75
I2
tp141
sg37
(I1
F2.75
tp142
sg38
(F0.75
I3
tp143
sg44
(F0.25
I3
tp144
sg46
(I1
F2.25
tp145
sg130
(F5.25
F9.25
tp146
sg32
(F5.75
F3.75
tp147
sg34
(F3.25
F3.75
tp148
sg30
(F5.75
F0.25
tp149
sg53
(F2.75
F2.25
tp150
sg123
(F3.25
F7.75
tp151
sg125
(F2.25
F7.75
tp152
sg97
(F2.25
F2.75
tp153
sg10
(F3.75
F3.25
tp154
sg13
(F5.25
F3.25
tp155
sg15
(F5.25
F0.75
tp156
sg7
(I3
F0.75
tp157
sg3
(I4
F0.75
tp158
sg18
(F3.25
I1
tp159
sg4
(F3.75
I1
tp160
sg27
(I3
F0.25
tp161
sg121
(I4
F9.25
tp162
sg64
(I3
F9.25
tp163
sg113
(I3
F9.75
tp164
sg86
(F3.75
I9
tp165
sg115
(F3.25
I9
tp166
sg111
(I4
F9.75
tp167
sg20
(I4
F0.25
tp168
sg60
(F0.25
I5
tp169
sg91
(I3
F5.25
tp170
sg80
(F2.25
I5
tp171
sg55
(F2.75
I5
tp172
sg78
(I2
F5.75
tp173
sg73
(I2
F5.25
tp174
sg76
(F2.75
I6
tp175
sg88
(F2.25
I6
tp176
sg75
(I3
F5.75
tp177
sg62
(F0.75
F9.25
tp178
sg82
(F2.75
F7.25
tp179
sg84
(F3.75
F7.25
tp180
sg136
(F4.25
F5.75
tp181
sg132
(F5.25
F8.75
tp182
sg134
(F4.25
F8.75
tp183
sg23
(F0.75
F0.75
tp184
sg109
(F5.75
F9.75
tp185
sg107
(F5.75
F8.25
tp186
sg105
(F4.75
F8.25
tp187
sg103
(F4.75
F5.25
tp188
sg68
(I1
F5.25
tp189
sg66
(F0.25
I6
tp190
sg58
(F0.75
I6
tp191
sg57
(I1
F5.75
tp192
sg42
(F0.75
I5
tp193
sg48
(F0.25
F0.25
tp194
sa.